; Function Attrs: mustprogress null_pointer_is_valid sspstrong uwtable
define noundef ptr @delayed_create_progress_dlg(ptr noundef %0, ptr noundef %1, ptr noundef %2, i1 noundef zeroext %3, ptr noundef %4, float noundef %5) local_unnamed_addr #0 {
  %7 = tail call ptr @create_progress_dlg(ptr noundef %0, ptr noundef %1, ptr noundef %2, i1 noundef zeroext %3, ptr noundef %4)
  %.not.i = icmp eq ptr %7, null
  br i1 %.not.i, label %update_progress_dlg.exit, label %8

8:                                                ; preds = %6
  %9 = load ptr, ptr %7, align 8
  %10 = fmul float %5, 1.000000e+02
  %11 = fptosi float %10 to i32
  %12 = getelementptr inbounds nuw i8, ptr %9, i64 40
  %13 = load ptr, ptr %12, align 8
  %14 = getelementptr inbounds nuw i8, ptr %13, i64 16
  %15 = load ptr, ptr %14, align 8
  tail call void @_ZN12QProgressBar8setValueEi(ptr noundef align 8 dereferenceable_or_null(40) %15, i32 noundef %11)
  tail call void @_ZN13ProgressFrame12valueChangedEi(ptr noundef align 8 dereferenceable_or_null(152) %9, i32 noundef %11)
  tail call void @_ZN16QCoreApplication13processEventsE6QFlagsIN10QEventLoop17ProcessEventsFlagEE(i32 0)
  br label %update_progress_dlg.exit

update_progress_dlg.exit:                         ; preds = %6, %8
  ret ptr %7
}